target datalayout = "e-m:e-p270:32:32-p271:32:32-p272:64:64-i64:64-i128:128-f80:128-n8:16:32:64-S128"
target triple = "x86_64-pc-linux-gnu"

%struct._priv_exr_context_t = type { i8, i8, i8, i8, i8, i8, i8, i8, %struct.exr_attr_string_t, %struct.exr_attr_string_t, ptr, ptr, ptr, ptr, ptr, ptr, ptr, ptr, i32, i32, i32, i32, i32, float, ptr, ptr, ptr, i64, ptr, ptr, i64, i32, i32, i32, i32, %struct._priv_exr_part_t, ptr, ptr, %struct.exr_attribute_list, %union.pthread_mutex_t, i8, i8, [2 x i8], i32 }
%struct.exr_attr_string_t = type { i32, i32, ptr }
%struct._priv_exr_part_t = type { i32, i32, %struct.exr_attribute_list, ptr, ptr, ptr, ptr, ptr, ptr, ptr, ptr, ptr, ptr, ptr, ptr, ptr, ptr, %struct.exr_attr_box2i_t, %struct.exr_attr_box2i_t, i32, i32, i32, float, i32, i32, ptr, ptr, ptr, ptr, i64, i16, i16, i32, i64, i64 }
%struct.exr_attr_box2i_t = type { %struct.exr_attr_v2i_t, %struct.exr_attr_v2i_t }
%struct.exr_attr_v2i_t = type { i32, i32 }
%struct.exr_attribute_list = type { i32, i32, ptr, ptr }
%union.pthread_mutex_t = type { %struct.__pthread_mutex_s }
%struct.__pthread_mutex_s = type { i32, i32, i32, i32, i32, i16, i16, %struct.__pthread_internal_list }
%struct.__pthread_internal_list = type { ptr, ptr }
%struct.exr_attribute_t = type { ptr, ptr, i8, i8, [2 x i8], i32, %union.anon }
%union.anon = type { double }

@.str = private unnamed_addr constant [29 x i8] c"Part index (%d) out of range\00", align 1
@.str.26 = private unnamed_addr constant [8 x i8] c"version\00", align 1
@.str.27 = private unnamed_addr constant [11 x i8] c"chunkCount\00", align 1
@.str.56 = private unnamed_addr constant [60 x i8] c"'%s' requested type 'i', but stored attributes is type '%s'\00", align 1

; Function Attrs: inlinehint nounwind uwtable
define internal void @internal_exr_unlock(ptr noundef %0) #2 {
  %2 = alloca ptr, align 8
  %3 = alloca ptr, align 8
  store ptr %0, ptr %2, align 8, !tbaa !3
  call void @llvm.lifetime.start.p0(i64 8, ptr %3) #8
  %4 = load ptr, ptr %2, align 8, !tbaa !3
  %5 = ptrtoint ptr %4 to i64
  %6 = inttoptr i64 %5 to ptr
  store ptr %6, ptr %3, align 8, !tbaa !3
  %7 = load ptr, ptr %3, align 8, !tbaa !3
  %8 = getelementptr inbounds nuw %struct._priv_exr_context_t, ptr %7, i32 0, i32 39
  %9 = call i32 @pthread_mutex_unlock(ptr noundef %8) #8
  call void @llvm.lifetime.end.p0(i64 8, ptr %3) #8
  ret void
}

; Function Attrs: inlinehint nounwind uwtable
define internal void @internal_exr_lock(ptr noundef %0) #2 {
  %2 = alloca ptr, align 8
  %3 = alloca ptr, align 8
  store ptr %0, ptr %2, align 8, !tbaa !3
  call void @llvm.lifetime.start.p0(i64 8, ptr %3) #8
  %4 = load ptr, ptr %2, align 8, !tbaa !3
  %5 = ptrtoint ptr %4 to i64
  %6 = inttoptr i64 %5 to ptr
  store ptr %6, ptr %3, align 8, !tbaa !3
  %7 = load ptr, ptr %3, align 8, !tbaa !3
  %8 = getelementptr inbounds nuw %struct._priv_exr_context_t, ptr %7, i32 0, i32 39
  %9 = call i32 @pthread_mutex_lock(ptr noundef %8) #8
  call void @llvm.lifetime.end.p0(i64 8, ptr %3) #8
  ret void
}

; Function Attrs: nounwind uwtable
define i32 @exr_attr_set_int(ptr noundef %0, i32 noundef %1, ptr noundef %2, i32 noundef %3) #0 {
  %5 = alloca i32, align 4
  %6 = alloca ptr, align 8
  %7 = alloca i32, align 4
  %8 = alloca ptr, align 8
  %9 = alloca i32, align 4
  %10 = alloca ptr, align 8
  %11 = alloca i32, align 4
  %12 = alloca ptr, align 8
  %13 = alloca i32, align 4
  store ptr %0, ptr %6, align 8, !tbaa !3
  store i32 %1, ptr %7, align 4, !tbaa !8
  store ptr %2, ptr %8, align 8, !tbaa !36
  store i32 %3, ptr %9, align 4, !tbaa !8
  %14 = load ptr, ptr %8, align 8, !tbaa !36
  %15 = icmp ne ptr %14, null
  br i1 %15, label %16, label %25

16:                                               ; preds = %4
  %17 = load ptr, ptr %8, align 8, !tbaa !36
  %18 = call i32 @strcmp(ptr noundef %17, ptr noundef @.str.26) #9
  %19 = icmp ne i32 %18, 0
  br i1 %19, label %25, label %20

20:                                               ; preds = %16
  %21 = load ptr, ptr %6, align 8, !tbaa !3
  %22 = load i32, ptr %7, align 4, !tbaa !8
  %23 = load i32, ptr %9, align 4, !tbaa !8
  %24 = call i32 @exr_set_version(ptr noundef %21, i32 noundef %22, i32 noundef %23)
  store i32 %24, ptr %5, align 4
  br label %156

25:                                               ; preds = %16, %4
  %26 = load ptr, ptr %8, align 8, !tbaa !36
  %27 = icmp ne ptr %26, null
  br i1 %27, label %28, label %37

28:                                               ; preds = %25
  %29 = load ptr, ptr %8, align 8, !tbaa !36
  %30 = call i32 @strcmp(ptr noundef %29, ptr noundef @.str.27) #9
  %31 = icmp ne i32 %30, 0
  br i1 %31, label %37, label %32

32:                                               ; preds = %28
  %33 = load ptr, ptr %6, align 8, !tbaa !3
  %34 = load i32, ptr %7, align 4, !tbaa !8
  %35 = load i32, ptr %9, align 4, !tbaa !8
  %36 = call i32 @exr_set_chunk_count(ptr noundef %33, i32 noundef %34, i32 noundef %35)
  store i32 %36, ptr %5, align 4
  br label %156

37:                                               ; preds = %28, %25
  call void @llvm.lifetime.start.p0(i64 8, ptr %10) #8
  store ptr null, ptr %10, align 8, !tbaa !35
  call void @llvm.lifetime.start.p0(i64 4, ptr %11) #8
  store i32 0, ptr %11, align 4, !tbaa !8
  call void @llvm.lifetime.start.p0(i64 8, ptr %12) #8
  %38 = load ptr, ptr %6, align 8, !tbaa !3
  %39 = icmp ne ptr %38, null
  br i1 %39, label %41, label %40

40:                                               ; preds = %37
  store i32 2, ptr %5, align 4
  store i32 1, ptr %13, align 4
  br label %155

41:                                               ; preds = %37
  %42 = load ptr, ptr %6, align 8, !tbaa !3
  call void @internal_exr_lock(ptr noundef %42)
  %43 = load i32, ptr %7, align 4, !tbaa !8
  %44 = icmp slt i32 %43, 0
  br i1 %44, label %51, label %45

45:                                               ; preds = %41
  %46 = load i32, ptr %7, align 4, !tbaa !8
  %47 = load ptr, ptr %6, align 8, !tbaa !3
  %48 = getelementptr inbounds nuw %struct._priv_exr_context_t, ptr %47, i32 0, i32 34
  %49 = load i32, ptr %48, align 4, !tbaa !26
  %50 = icmp sge i32 %46, %49
  br i1 %50, label %51, label %59

51:                                               ; preds = %45, %41
  %52 = load ptr, ptr %6, align 8, !tbaa !3
  call void @internal_exr_unlock(ptr noundef %52)
  %53 = load ptr, ptr %6, align 8, !tbaa !3
  %54 = getelementptr inbounds nuw %struct._priv_exr_context_t, ptr %53, i32 0, i32 14
  %55 = load ptr, ptr %54, align 8, !tbaa !27
  %56 = load ptr, ptr %6, align 8, !tbaa !3
  %57 = load i32, ptr %7, align 4, !tbaa !8
  %58 = call i32 (ptr, i32, ptr, ...) %55(ptr noundef %56, i32 noundef 4, ptr noundef @.str, i32 noundef %57)
  store i32 %58, ptr %5, align 4
  store i32 1, ptr %13, align 4
  br label %155

59:                                               ; preds = %45
  %60 = load ptr, ptr %6, align 8, !tbaa !3
  %61 = getelementptr inbounds nuw %struct._priv_exr_context_t, ptr %60, i32 0, i32 37
  %62 = load ptr, ptr %61, align 8, !tbaa !28
  %63 = load i32, ptr %7, align 4, !tbaa !8
  %64 = sext i32 %63 to i64
  %65 = getelementptr inbounds ptr, ptr %62, i64 %64
  %66 = load ptr, ptr %65, align 8, !tbaa !29
  store ptr %66, ptr %12, align 8, !tbaa !29
  %67 = load ptr, ptr %6, align 8, !tbaa !3
  %68 = getelementptr inbounds nuw %struct._priv_exr_context_t, ptr %67, i32 0, i32 0
  %69 = load i8, ptr %68, align 8, !tbaa !12
  %70 = zext i8 %69 to i32
  %71 = icmp eq i32 %70, 0
  br i1 %71, label %72, label %79

72:                                               ; preds = %59
  %73 = load ptr, ptr %6, align 8, !tbaa !3
  call void @internal_exr_unlock(ptr noundef %73)
  %74 = load ptr, ptr %6, align 8, !tbaa !3
  %75 = getelementptr inbounds nuw %struct._priv_exr_context_t, ptr %74, i32 0, i32 12
  %76 = load ptr, ptr %75, align 8, !tbaa !31
  %77 = load ptr, ptr %6, align 8, !tbaa !3
  %78 = call i32 %76(ptr noundef %77, i32 noundef 8)
  store i32 %78, ptr %5, align 4
  store i32 1, ptr %13, align 4
  br label %155

79:                                               ; preds = %59
  %80 = load ptr, ptr %6, align 8, !tbaa !3
  %81 = getelementptr inbounds nuw %struct._priv_exr_context_t, ptr %80, i32 0, i32 0
  %82 = load i8, ptr %81, align 8, !tbaa !12
  %83 = zext i8 %82 to i32
  %84 = icmp eq i32 %83, 3
  br i1 %84, label %85, label %92

85:                                               ; preds = %79
  %86 = load ptr, ptr %6, align 8, !tbaa !3
  call void @internal_exr_unlock(ptr noundef %86)
  %87 = load ptr, ptr %6, align 8, !tbaa !3
  %88 = getelementptr inbounds nuw %struct._priv_exr_context_t, ptr %87, i32 0, i32 12
  %89 = load ptr, ptr %88, align 8, !tbaa !31
  %90 = load ptr, ptr %6, align 8, !tbaa !3
  %91 = call i32 %89(ptr noundef %90, i32 noundef 21)
  store i32 %91, ptr %5, align 4
  store i32 1, ptr %13, align 4
  br label %155

92:                                               ; preds = %79
  %93 = load ptr, ptr %6, align 8, !tbaa !3
  %94 = load ptr, ptr %12, align 8, !tbaa !29
  %95 = getelementptr inbounds nuw %struct._priv_exr_part_t, ptr %94, i32 0, i32 2
  %96 = load ptr, ptr %8, align 8, !tbaa !36
  %97 = call i32 @exr_attr_list_find_by_name(ptr noundef %93, ptr noundef %95, ptr noundef %96, ptr noundef %10)
  store i32 %97, ptr %11, align 4, !tbaa !8
  %98 = load i32, ptr %11, align 4, !tbaa !8
  %99 = icmp eq i32 %98, 15
  br i1 %99, label %100, label %121

100:                                              ; preds = %92
  %101 = load ptr, ptr %6, align 8, !tbaa !3
  %102 = getelementptr inbounds nuw %struct._priv_exr_context_t, ptr %101, i32 0, i32 0
  %103 = load i8, ptr %102, align 8, !tbaa !12
  %104 = zext i8 %103 to i32
  %105 = icmp ne i32 %104, 1
  br i1 %105, label %106, label %115

106:                                              ; preds = %100
  %107 = load ptr, ptr %6, align 8, !tbaa !3
  %108 = getelementptr inbounds nuw %struct._priv_exr_context_t, ptr %107, i32 0, i32 0
  %109 = load i8, ptr %108, align 8, !tbaa !12
  %110 = zext i8 %109 to i32
  %111 = icmp ne i32 %110, 4
  br i1 %111, label %112, label %115

112:                                              ; preds = %106
  %113 = load ptr, ptr %6, align 8, !tbaa !3
  call void @internal_exr_unlock(ptr noundef %113)
  %114 = load i32, ptr %11, align 4, !tbaa !8
  store i32 %114, ptr %5, align 4
  store i32 1, ptr %13, align 4
  br label %155

115:                                              ; preds = %106, %100
  %116 = load ptr, ptr %6, align 8, !tbaa !3
  %117 = load ptr, ptr %12, align 8, !tbaa !29
  %118 = getelementptr inbounds nuw %struct._priv_exr_part_t, ptr %117, i32 0, i32 2
  %119 = load ptr, ptr %8, align 8, !tbaa !36
  %120 = call i32 @exr_attr_list_add(ptr noundef %116, ptr noundef %118, ptr noundef %119, i32 noundef 10, i32 noundef 0, ptr noundef null, ptr noundef %10)
  store i32 %120, ptr %11, align 4, !tbaa !8
  br label %145

121:                                              ; preds = %92
  %122 = load i32, ptr %11, align 4, !tbaa !8
  %123 = icmp eq i32 %122, 0
  br i1 %123, label %124, label %141

124:                                              ; preds = %121
  %125 = load ptr, ptr %10, align 8, !tbaa !35
  %126 = getelementptr inbounds nuw %struct.exr_attribute_t, ptr %125, i32 0, i32 5
  %127 = load i32, ptr %126, align 4, !tbaa !39
  %128 = icmp ne i32 %127, 10
  br i1 %128, label %129, label %140

129:                                              ; preds = %124
  %130 = load ptr, ptr %6, align 8, !tbaa !3
  call void @internal_exr_unlock(ptr noundef %130)
  %131 = load ptr, ptr %6, align 8, !tbaa !3
  %132 = getelementptr inbounds nuw %struct._priv_exr_context_t, ptr %131, i32 0, i32 14
  %133 = load ptr, ptr %132, align 8, !tbaa !27
  %134 = load ptr, ptr %6, align 8, !tbaa !3
  %135 = load ptr, ptr %8, align 8, !tbaa !36
  %136 = load ptr, ptr %10, align 8, !tbaa !35
  %137 = getelementptr inbounds nuw %struct.exr_attribute_t, ptr %136, i32 0, i32 1
  %138 = load ptr, ptr %137, align 8, !tbaa !41
  %139 = call i32 (ptr, i32, ptr, ...) %133(ptr noundef %134, i32 noundef 16, ptr noundef @.str.56, ptr noundef %135, ptr noundef %138)
  store i32 %139, ptr %5, align 4
  store i32 1, ptr %13, align 4
  br label %155

140:                                              ; preds = %124
  br label %144

141:                                              ; preds = %121
  %142 = load ptr, ptr %6, align 8, !tbaa !3
  call void @internal_exr_unlock(ptr noundef %142)
  %143 = load i32, ptr %11, align 4, !tbaa !8
  store i32 %143, ptr %5, align 4
  store i32 1, ptr %13, align 4
  br label %155

144:                                              ; preds = %140
  br label %145

145:                                              ; preds = %144, %115
  %146 = load i32, ptr %11, align 4, !tbaa !8
  %147 = icmp eq i32 %146, 0
  br i1 %147, label %148, label %152

148:                                              ; preds = %145
  %149 = load i32, ptr %9, align 4, !tbaa !8
  %150 = load ptr, ptr %10, align 8, !tbaa !35
  %151 = getelementptr inbounds nuw %struct.exr_attribute_t, ptr %150, i32 0, i32 6
  store i32 %149, ptr %151, align 8, !tbaa !42
  br label %152

152:                                              ; preds = %148, %145
  %153 = load ptr, ptr %6, align 8, !tbaa !3
  call void @internal_exr_unlock(ptr noundef %153)
  %154 = load i32, ptr %11, align 4, !tbaa !8
  store i32 %154, ptr %5, align 4
  store i32 1, ptr %13, align 4
  br label %155

155:                                              ; preds = %152, %141, %129, %112, %85, %72, %51, %40
  call void @llvm.lifetime.end.p0(i64 8, ptr %12) #8
  call void @llvm.lifetime.end.p0(i64 4, ptr %11) #8
  call void @llvm.lifetime.end.p0(i64 8, ptr %10) #8
  br label %156

156:                                              ; preds = %155, %32, %20
  %157 = load i32, ptr %5, align 4
  ret i32 %157
}