; Function Attrs: nounwind uwtable
define i32 @exr_attr_set_int(ptr noundef %0, i32 noundef %1, ptr noundef %2, i32 noundef %3) local_unnamed_addr #0 {
  %5 = alloca ptr, align 8
  %.not = icmp eq ptr %2, null
  br i1 %.not, label %.critedge, label %6

6:                                                ; preds = %4
  %7 = tail call i32 @strcmp(ptr noundef nonnull dereferenceable(1) %2, ptr noundef nonnull dereferenceable(8) @.str.26) #7
  %.not60 = icmp eq i32 %7, 0
  br i1 %.not60, label %8, label %10

8:                                                ; preds = %6
  %9 = tail call i32 @exr_set_version(ptr noundef %0, i32 noundef %1, i32 noundef %3)
  br label %72

10:                                               ; preds = %6
  %11 = tail call i32 @strcmp(ptr noundef nonnull dereferenceable(1) %2, ptr noundef nonnull dereferenceable(11) @.str.27) #7
  %.not61 = icmp eq i32 %11, 0
  br i1 %.not61, label %12, label %.critedge

12:                                               ; preds = %10
  %13 = tail call i32 @exr_set_chunk_count(ptr noundef %0, i32 noundef %1, i32 noundef %3)
  br label %72

.critedge:                                        ; preds = %4, %10
  call void @llvm.lifetime.start.p0(i64 8, ptr nonnull %5) #6
  store ptr null, ptr %5, align 8, !tbaa !30
  %.not62 = icmp eq ptr %0, null
  br i1 %.not62, label %71, label %14

14:                                               ; preds = %.critedge
  %15 = getelementptr inbounds nuw i8, ptr %0, i64 504
  %16 = tail call i32 @pthread_mutex_lock(ptr noundef nonnull %15) #6
  %17 = icmp slt i32 %1, 0
  br i1 %17, label %21, label %18

18:                                               ; preds = %14
  %19 = getelementptr inbounds nuw i8, ptr %0, i64 196
  %20 = load i32, ptr %19, align 4, !tbaa !22
  %.not63 = icmp slt i32 %1, %20
  br i1 %.not63, label %26, label %21

21:                                               ; preds = %18, %14
  %22 = tail call i32 @pthread_mutex_unlock(ptr noundef nonnull %15) #6
  %23 = getelementptr inbounds nuw i8, ptr %0, i64 72
  %24 = load ptr, ptr %23, align 8, !tbaa !23
  %25 = tail call i32 (ptr, i32, ptr, ...) %24(ptr noundef nonnull %0, i32 noundef 4, ptr noundef nonnull @.str, i32 noundef %1) #6
  br label %71

26:                                               ; preds = %18
  %27 = load i8, ptr %0, align 8, !tbaa !3
  switch i8 %27, label %38 [
    i8 0, label %28
    i8 3, label %33
  ]

28:                                               ; preds = %26
  %29 = tail call i32 @pthread_mutex_unlock(ptr noundef nonnull %15) #6
  %30 = getelementptr inbounds nuw i8, ptr %0, i64 56
  %31 = load ptr, ptr %30, align 8, !tbaa !27
  %32 = tail call i32 %31(ptr noundef nonnull %0, i32 noundef 8) #6
  br label %71

33:                                               ; preds = %26
  %34 = tail call i32 @pthread_mutex_unlock(ptr noundef nonnull %15) #6
  %35 = getelementptr inbounds nuw i8, ptr %0, i64 56
  %36 = load ptr, ptr %35, align 8, !tbaa !27
  %37 = tail call i32 %36(ptr noundef nonnull %0, i32 noundef 21) #6
  br label %71

38:                                               ; preds = %26
  %39 = getelementptr inbounds nuw i8, ptr %0, i64 472
  %40 = load ptr, ptr %39, align 8, !tbaa !24
  %41 = zext nneg i32 %1 to i64
  %42 = getelementptr inbounds nuw ptr, ptr %40, i64 %41
  %43 = load ptr, ptr %42, align 8, !tbaa !25
  %44 = getelementptr inbounds nuw i8, ptr %43, i64 8
  %45 = call i32 @exr_attr_list_find_by_name(ptr noundef nonnull %0, ptr noundef nonnull %44, ptr noundef %2, ptr noundef nonnull %5) #6
  switch i32 %45, label %62 [
    i32 15, label %46
    i32 0, label %50
  ]

46:                                               ; preds = %38
  %47 = load i8, ptr %0, align 8, !tbaa !3
  switch i8 %47, label %48 [
    i8 1, label %64
    i8 4, label %64
  ]

48:                                               ; preds = %46
  %49 = call i32 @pthread_mutex_unlock(ptr noundef nonnull %15) #6
  br label %71

50:                                               ; preds = %38
  %51 = load ptr, ptr %5, align 8, !tbaa !30
  %52 = getelementptr inbounds nuw i8, ptr %51, i64 20
  %53 = load i32, ptr %52, align 4, !tbaa !32
  %.not64 = icmp eq i32 %53, 10
  br i1 %.not64, label %.thread, label %54

54:                                               ; preds = %50
  %55 = call i32 @pthread_mutex_unlock(ptr noundef nonnull %15) #6
  %56 = getelementptr inbounds nuw i8, ptr %0, i64 72
  %57 = load ptr, ptr %56, align 8, !tbaa !23
  %58 = load ptr, ptr %5, align 8, !tbaa !30
  %59 = getelementptr inbounds nuw i8, ptr %58, i64 8
  %60 = load ptr, ptr %59, align 8, !tbaa !34
  %61 = call i32 (ptr, i32, ptr, ...) %57(ptr noundef nonnull %0, i32 noundef 16, ptr noundef nonnull @.str.56, ptr noundef %2, ptr noundef %60) #6
  br label %71

62:                                               ; preds = %38
  %63 = call i32 @pthread_mutex_unlock(ptr noundef nonnull %15) #6
  br label %71

64:                                               ; preds = %46, %46
  %65 = call i32 @exr_attr_list_add(ptr noundef nonnull %0, ptr noundef nonnull %44, ptr noundef %2, i32 noundef 10, i32 noundef 0, ptr noundef null, ptr noundef nonnull %5) #6
  %66 = icmp eq i32 %65, 0
  br i1 %66, label %..thread_crit_edge, label %69

..thread_crit_edge:                               ; preds = %64
  %.pre = load ptr, ptr %5, align 8, !tbaa !30
  br label %.thread

.thread:                                          ; preds = %..thread_crit_edge, %50
  %67 = phi ptr [ %.pre, %..thread_crit_edge ], [ %51, %50 ]
  %68 = getelementptr inbounds nuw i8, ptr %67, i64 24
  store i32 %3, ptr %68, align 8, !tbaa !35
  br label %69

69:                                               ; preds = %.thread, %64
  %.05168 = phi i32 [ 0, %.thread ], [ %65, %64 ]
  %70 = call i32 @pthread_mutex_unlock(ptr noundef nonnull %15) #6
  br label %71

71:                                               ; preds = %.critedge, %69, %62, %54, %48, %33, %28, %21
  %.1 = phi i32 [ %25, %21 ], [ %32, %28 ], [ %37, %33 ], [ 15, %48 ], [ %.05168, %69 ], [ %61, %54 ], [ %45, %62 ], [ 2, %.critedge ]
  call void @llvm.lifetime.end.p0(i64 8, ptr nonnull %5) #6
  br label %72

72:                                               ; preds = %71, %12, %8
  %.0 = phi i32 [ %.1, %71 ], [ %13, %12 ], [ %9, %8 ]
  ret i32 %.0
}